target datalayout = "e-m:e-p270:32:32-p271:32:32-p272:64:64-i64:64-i128:128-f80:128-n8:16:32:64-S128"
target triple = "x86_64-pc-linux-gnu"

%struct.AllocSetFreeList = type { i32, ptr }
%struct.AllocSetContext = type { %struct.MemoryContextData, ptr, [11 x ptr], i32, i32, i32, i32, i32 }
%struct.MemoryContextData = type { i32, i8, i8, i64, ptr, ptr, ptr, ptr, ptr, ptr, ptr, ptr }
%struct.AllocBlockData = type { ptr, ptr, ptr, ptr, ptr }

@context_freelists = internal global [2 x %struct.AllocSetFreeList] zeroinitializer, align 16

; Function Attrs: nounwind uwtable
define dso_local void @AllocSetDelete(ptr noundef %0) #0 {
  %2 = alloca ptr, align 8
  %3 = alloca ptr, align 8
  %4 = alloca ptr, align 8
  %5 = alloca i64, align 8
  %6 = alloca ptr, align 8
  %7 = alloca ptr, align 8
  %8 = alloca i32, align 4
  %9 = alloca ptr, align 8
  store ptr %0, ptr %2, align 8
  call void @llvm.lifetime.start.p0(i64 8, ptr %3) #14
  %10 = load ptr, ptr %2, align 8
  store ptr %10, ptr %3, align 8
  call void @llvm.lifetime.start.p0(i64 8, ptr %4) #14
  %11 = load ptr, ptr %3, align 8
  %12 = getelementptr inbounds nuw %struct.AllocSetContext, ptr %11, i32 0, i32 1
  %13 = load ptr, ptr %12, align 8
  store ptr %13, ptr %4, align 8
  call void @llvm.lifetime.start.p0(i64 8, ptr %5) #14
  %14 = load ptr, ptr %3, align 8
  %15 = getelementptr inbounds nuw i8, ptr %14, i64 200
  %16 = getelementptr inbounds nuw %struct.AllocBlockData, ptr %15, i32 0, i32 4
  %17 = load ptr, ptr %16, align 8
  %18 = load ptr, ptr %3, align 8
  %19 = ptrtoint ptr %17 to i64
  %20 = ptrtoint ptr %18 to i64
  %21 = sub i64 %19, %20
  store i64 %21, ptr %5, align 8
  %22 = load ptr, ptr %3, align 8
  %23 = getelementptr inbounds nuw %struct.AllocSetContext, ptr %22, i32 0, i32 7
  %24 = load i32, ptr %23, align 8
  %25 = icmp sge i32 %24, 0
  br i1 %25, label %26, label %79

26:                                               ; preds = %1
  call void @llvm.lifetime.start.p0(i64 8, ptr %6) #14
  %27 = load ptr, ptr %3, align 8
  %28 = getelementptr inbounds nuw %struct.AllocSetContext, ptr %27, i32 0, i32 7
  %29 = load i32, ptr %28, align 8
  %30 = sext i32 %29 to i64
  %31 = getelementptr inbounds [2 x %struct.AllocSetFreeList], ptr @context_freelists, i64 0, i64 %30
  store ptr %31, ptr %6, align 8
  %32 = load ptr, ptr %2, align 8
  %33 = getelementptr inbounds nuw %struct.MemoryContextData, ptr %32, i32 0, i32 1
  %34 = load i8, ptr %33, align 4, !range !9, !noundef !10
  %35 = trunc i8 %34 to i1
  br i1 %35, label %38, label %36

36:                                               ; preds = %26
  %37 = load ptr, ptr %2, align 8
  call void @MemoryContextResetOnly(ptr noundef %37)
  br label %38

38:                                               ; preds = %36, %26
  %39 = load ptr, ptr %6, align 8
  %40 = getelementptr inbounds nuw %struct.AllocSetFreeList, ptr %39, i32 0, i32 0
  %41 = load i32, ptr %40, align 8
  %42 = icmp sge i32 %41, 100
  br i1 %42, label %43, label %65

43:                                               ; preds = %38
  br label %44

44:                                               ; preds = %49, %43
  %45 = load ptr, ptr %6, align 8
  %46 = getelementptr inbounds nuw %struct.AllocSetFreeList, ptr %45, i32 0, i32 1
  %47 = load ptr, ptr %46, align 8
  %48 = icmp ne ptr %47, null
  br i1 %48, label %49, label %64

49:                                               ; preds = %44
  call void @llvm.lifetime.start.p0(i64 8, ptr %7) #14
  %50 = load ptr, ptr %6, align 8
  %51 = getelementptr inbounds nuw %struct.AllocSetFreeList, ptr %50, i32 0, i32 1
  %52 = load ptr, ptr %51, align 8
  store ptr %52, ptr %7, align 8
  %53 = load ptr, ptr %7, align 8
  %54 = getelementptr inbounds nuw %struct.AllocSetContext, ptr %53, i32 0, i32 0
  %55 = getelementptr inbounds nuw %struct.MemoryContextData, ptr %54, i32 0, i32 8
  %56 = load ptr, ptr %55, align 8
  %57 = load ptr, ptr %6, align 8
  %58 = getelementptr inbounds nuw %struct.AllocSetFreeList, ptr %57, i32 0, i32 1
  store ptr %56, ptr %58, align 8
  %59 = load ptr, ptr %6, align 8
  %60 = getelementptr inbounds nuw %struct.AllocSetFreeList, ptr %59, i32 0, i32 0
  %61 = load i32, ptr %60, align 8
  %62 = add i32 %61, -1
  store i32 %62, ptr %60, align 8
  %63 = load ptr, ptr %7, align 8
  call void @free(ptr noundef %63) #14
  call void @llvm.lifetime.end.p0(i64 8, ptr %7) #14
  br label %44, !llvm.loop !11

64:                                               ; preds = %44
  br label %65

65:                                               ; preds = %64, %38
  %66 = load ptr, ptr %6, align 8
  %67 = getelementptr inbounds nuw %struct.AllocSetFreeList, ptr %66, i32 0, i32 1
  %68 = load ptr, ptr %67, align 8
  %69 = load ptr, ptr %3, align 8
  %70 = getelementptr inbounds nuw %struct.AllocSetContext, ptr %69, i32 0, i32 0
  %71 = getelementptr inbounds nuw %struct.MemoryContextData, ptr %70, i32 0, i32 8
  store ptr %68, ptr %71, align 8
  %72 = load ptr, ptr %3, align 8
  %73 = load ptr, ptr %6, align 8
  %74 = getelementptr inbounds nuw %struct.AllocSetFreeList, ptr %73, i32 0, i32 1
  store ptr %72, ptr %74, align 8
  %75 = load ptr, ptr %6, align 8
  %76 = getelementptr inbounds nuw %struct.AllocSetFreeList, ptr %75, i32 0, i32 0
  %77 = load i32, ptr %76, align 8
  %78 = add i32 %77, 1
  store i32 %78, ptr %76, align 8
  store i32 1, ptr %8, align 4
  call void @llvm.lifetime.end.p0(i64 8, ptr %6) #14
  br label %114

79:                                               ; preds = %1
  br label %80

80:                                               ; preds = %110, %79
  %81 = load ptr, ptr %4, align 8
  %82 = icmp ne ptr %81, null
  br i1 %82, label %83, label %112

83:                                               ; preds = %80
  call void @llvm.lifetime.start.p0(i64 8, ptr %9) #14
  %84 = load ptr, ptr %4, align 8
  %85 = getelementptr inbounds nuw %struct.AllocBlockData, ptr %84, i32 0, i32 2
  %86 = load ptr, ptr %85, align 8
  store ptr %86, ptr %9, align 8
  %87 = load ptr, ptr %4, align 8
  %88 = load ptr, ptr %3, align 8
  %89 = getelementptr inbounds nuw i8, ptr %88, i64 200
  %90 = icmp eq ptr %87, %89
  br i1 %90, label %103, label %91

91:                                               ; preds = %83
  %92 = load ptr, ptr %4, align 8
  %93 = getelementptr inbounds nuw %struct.AllocBlockData, ptr %92, i32 0, i32 4
  %94 = load ptr, ptr %93, align 8
  %95 = load ptr, ptr %4, align 8
  %96 = ptrtoint ptr %94 to i64
  %97 = ptrtoint ptr %95 to i64
  %98 = sub i64 %96, %97
  %99 = load ptr, ptr %2, align 8
  %100 = getelementptr inbounds nuw %struct.MemoryContextData, ptr %99, i32 0, i32 3
  %101 = load i64, ptr %100, align 8
  %102 = sub i64 %101, %98
  store i64 %102, ptr %100, align 8
  br label %103

103:                                              ; preds = %91, %83
  %104 = load ptr, ptr %4, align 8
  %105 = load ptr, ptr %3, align 8
  %106 = getelementptr inbounds nuw i8, ptr %105, i64 200
  %107 = icmp eq ptr %104, %106
  br i1 %107, label %110, label %108

108:                                              ; preds = %103
  %109 = load ptr, ptr %4, align 8
  call void @free(ptr noundef %109) #14
  br label %110

110:                                              ; preds = %108, %103
  %111 = load ptr, ptr %9, align 8
  store ptr %111, ptr %4, align 8
  call void @llvm.lifetime.end.p0(i64 8, ptr %9) #14
  br label %80, !llvm.loop !12

112:                                              ; preds = %80
  %113 = load ptr, ptr %3, align 8
  call void @free(ptr noundef %113) #14
  store i32 0, ptr %8, align 4
  br label %114

114:                                              ; preds = %112, %65
  call void @llvm.lifetime.end.p0(i64 8, ptr %5) #14
  call void @llvm.lifetime.end.p0(i64 8, ptr %4) #14
  call void @llvm.lifetime.end.p0(i64 8, ptr %3) #14
  %115 = load i32, ptr %8, align 4
  switch i32 %115, label %117 [
    i32 0, label %116
    i32 1, label %116
  ]

116:                                              ; preds = %114, %114
  ret void

117:                                              ; preds = %114
  unreachable
}