; Function Attrs: nounwind uwtable
define dso_local void @AllocSetDelete(ptr noundef %0) local_unnamed_addr #0 {
  %2 = getelementptr inbounds nuw i8, ptr %0, i64 80
  %3 = load ptr, ptr %2, align 8
  %4 = getelementptr inbounds nuw i8, ptr %0, i64 200
  %5 = getelementptr inbounds nuw i8, ptr %0, i64 192
  %6 = load i32, ptr %5, align 8
  %7 = icmp sgt i32 %6, -1
  br i1 %7, label %9, label %.preheader36

.preheader36:                                     ; preds = %1
  %.not37 = icmp eq ptr %3, null
  br i1 %.not37, label %._crit_edge, label %.lr.ph

.lr.ph:                                           ; preds = %.preheader36
  %8 = getelementptr inbounds nuw i8, ptr %0, i64 8
  br label %30

9:                                                ; preds = %1
  %10 = zext nneg i32 %6 to i64
  %11 = getelementptr inbounds nuw [2 x %struct.AllocSetFreeList], ptr @context_freelists, i64 0, i64 %10
  %12 = getelementptr inbounds nuw i8, ptr %0, i64 4
  %13 = load i8, ptr %12, align 4, !range !7, !noundef !8
  %14 = trunc nuw i8 %13 to i1
  br i1 %14, label %16, label %15

15:                                               ; preds = %9
  tail call void @MemoryContextResetOnly(ptr noundef nonnull %0) #15
  br label %16

16:                                               ; preds = %15, %9
  %17 = load i32, ptr %11, align 16
  %18 = icmp sgt i32 %17, 99
  br i1 %18, label %.preheader, label %.loopexit

.preheader:                                       ; preds = %16
  %19 = getelementptr inbounds nuw i8, ptr %11, i64 8
  %.promoted = load ptr, ptr %19, align 8
  %.not3439 = icmp eq ptr %.promoted, null
  br i1 %.not3439, label %.loopexit, label %.lr.ph40

.lr.ph40:                                         ; preds = %.preheader, %.lr.ph40
  %20 = phi ptr [ %22, %.lr.ph40 ], [ %.promoted, %.preheader ]
  %21 = getelementptr inbounds nuw i8, ptr %20, i64 48
  %22 = load ptr, ptr %21, align 8
  store ptr %22, ptr %19, align 8
  %23 = load i32, ptr %11, align 16
  %24 = add i32 %23, -1
  store i32 %24, ptr %11, align 16
  tail call void @free(ptr noundef nonnull %20) #15
  %.not34 = icmp eq ptr %22, null
  br i1 %.not34, label %.loopexit.loopexit, label %.lr.ph40, !llvm.loop !9

.loopexit.loopexit:                               ; preds = %.lr.ph40
  %.pre = load i32, ptr %11, align 16
  br label %.loopexit

.loopexit:                                        ; preds = %.loopexit.loopexit, %.preheader, %16
  %25 = phi i32 [ %.pre, %.loopexit.loopexit ], [ %17, %.preheader ], [ %17, %16 ]
  %26 = getelementptr inbounds nuw i8, ptr %11, i64 8
  %27 = load ptr, ptr %26, align 8
  %28 = getelementptr inbounds nuw i8, ptr %0, i64 48
  store ptr %27, ptr %28, align 8
  store ptr %0, ptr %26, align 8
  %29 = add i32 %25, 1
  store i32 %29, ptr %11, align 16
  br label %41

30:                                               ; preds = %.lr.ph, %.critedge
  %.038 = phi ptr [ %3, %.lr.ph ], [ %32, %.critedge ]
  %31 = getelementptr inbounds nuw i8, ptr %.038, i64 16
  %32 = load ptr, ptr %31, align 8
  %33 = icmp eq ptr %.038, %4
  br i1 %33, label %.critedge, label %34

34:                                               ; preds = %30
  %35 = getelementptr inbounds nuw i8, ptr %.038, i64 32
  %36 = load ptr, ptr %35, align 8
  %37 = ptrtoint ptr %36 to i64
  %38 = ptrtoint ptr %.038 to i64
  %.neg = sub i64 %38, %37
  %39 = load i64, ptr %8, align 8
  %40 = add i64 %.neg, %39
  store i64 %40, ptr %8, align 8
  tail call void @free(ptr noundef nonnull %.038) #15
  br label %.critedge

.critedge:                                        ; preds = %30, %34
  %.not = icmp eq ptr %32, null
  br i1 %.not, label %._crit_edge, label %30, !llvm.loop !10

._crit_edge:                                      ; preds = %.critedge, %.preheader36
  tail call void @free(ptr noundef %0) #15
  br label %41

41:                                               ; preds = %._crit_edge, %.loopexit
  ret void
}